; Function Attrs: mustprogress nounwind uwtable
define hidden void @_ZN8XNMethod15nmethod_oops_doEP7nmethodP10OopClosure(ptr noundef %0, ptr noundef %1) local_unnamed_addr #0 align 2 {
  %3 = getelementptr i8, ptr %0, i64 112
  %.val.i = load ptr, ptr %3, align 8
  %4 = tail call noundef ptr @_ZN12XNMethodData4lockEv(ptr noundef nonnull align 8 dereferenceable(120) %.val.i) #10
  %.not.i = icmp eq ptr %4, null
  br i1 %.not.i, label %_ZN7XLockerI14XReentrantLockEC2EPS0_.exit.thread, label %5

_ZN7XLockerI14XReentrantLockEC2EPS0_.exit.thread: ; preds = %2
  tail call void @_ZN8XNMethod21nmethod_oops_do_innerEP7nmethodP10OopClosure(ptr noundef nonnull %0, ptr noundef %1)
  br label %_ZN7XLockerI14XReentrantLockED2Ev.exit

5:                                                ; preds = %2
  %6 = tail call align 8 ptr @llvm.threadlocal.address.p0(ptr align 8 @_ZN6Thread12_thr_currentE)
  %7 = load ptr, ptr %6, align 8
  %8 = getelementptr inbounds i8, ptr %4, i64 40
  %9 = load volatile ptr, ptr %8, align 8
  %.not.i.i = icmp eq ptr %9, %7
  br i1 %.not.i.i, label %12, label %10

10:                                               ; preds = %5
  %11 = tail call i32 @pthread_mutex_lock(ptr noundef nonnull %4) #10
  store volatile ptr %7, ptr %8, align 8
  br label %12

12:                                               ; preds = %10, %5
  %13 = getelementptr inbounds i8, ptr %4, i64 48
  %14 = load i64, ptr %13, align 8
  %15 = add i64 %14, 1
  store i64 %15, ptr %13, align 8
  tail call void @_ZN8XNMethod21nmethod_oops_do_innerEP7nmethodP10OopClosure(ptr noundef nonnull %0, ptr noundef %1)
  %16 = load i64, ptr %13, align 8
  %17 = add i64 %16, -1
  store i64 %17, ptr %13, align 8
  %18 = icmp eq i64 %17, 0
  br i1 %18, label %19, label %_ZN7XLockerI14XReentrantLockED2Ev.exit

19:                                               ; preds = %12
  store volatile ptr null, ptr %8, align 8
  %20 = tail call i32 @pthread_mutex_unlock(ptr noundef nonnull %4) #10
  br label %_ZN7XLockerI14XReentrantLockED2Ev.exit

_ZN7XLockerI14XReentrantLockED2Ev.exit:           ; preds = %_ZN7XLockerI14XReentrantLockEC2EPS0_.exit.thread, %12, %19
  ret void
}